target datalayout = "e-m:e-p270:32:32-p271:32:32-p272:64:64-i64:64-i128:128-f80:128-n8:16:32:64-S128"
target triple = "x86_64-pc-linux-gnu"

%"class.std::__cxx11::basic_string" = type { %"struct.std::__cxx11::basic_string<char>::_Alloc_hider", i64, %union.anon }
%"struct.std::__cxx11::basic_string<char>::_Alloc_hider" = type { ptr }
%union.anon = type { i64, [8 x i8] }
%"class.std::allocator" = type { i8 }

@.str.1 = private unnamed_addr constant [121 x i8] c"generated/home/dtcxzyw/WorkSpace/Projects/compilers/llvm-opt-benchmark/bench/opencv/opencv/modules/dnn/src/op_halide.cpp\00", align 1
@.str.2 = private unnamed_addr constant [1 x i8] zeroinitializer, align 1
@__func__._ZNK2cv3dnn14dnn4_v202405215Layer20applyHalideSchedulerERNS_3PtrINS1_11BackendNodeEEERKSt6vectorIPNS_3MatESaIS9_EERKS7_IS8_SaIS8_EEi = private unnamed_addr constant [21 x i8] c"applyHalideScheduler\00", align 1

; Function Attrs: mustprogress uwtable
define void @_ZNK2cv3dnn14dnn4_v202405215Layer20applyHalideSchedulerERNS_3PtrINS1_11BackendNodeEEERKSt6vectorIPNS_3MatESaIS9_EERKS7_IS8_SaIS8_EEi(ptr noundef nonnull align 8 dereferenceable(100) %0, ptr noundef nonnull align 1 %1, ptr noundef nonnull align 8 dereferenceable(24) %2, ptr noundef nonnull align 8 dereferenceable(24) %3, i32 noundef %4) unnamed_addr #4 align 2 personality ptr @__gxx_personality_v0 {
  %6 = alloca ptr, align 8
  %7 = alloca ptr, align 8
  %8 = alloca ptr, align 8
  %9 = alloca ptr, align 8
  %10 = alloca i32, align 4
  %11 = alloca %"class.std::__cxx11::basic_string", align 8
  %12 = alloca %"class.std::allocator", align 1
  %13 = alloca ptr, align 8
  %14 = alloca i32, align 4
  store ptr %0, ptr %6, align 8
  store ptr %1, ptr %7, align 8
  store ptr %2, ptr %8, align 8
  store ptr %3, ptr %9, align 8
  store i32 %4, ptr %10, align 4
  call void @_ZNSaIcEC1Ev(ptr noundef nonnull align 1 dereferenceable(1) %12) #3
  invoke void @_ZNSt7__cxx1112basic_stringIcSt11char_traitsIcESaIcEEC1EPKcRKS3_(ptr noundef nonnull align 8 dereferenceable(32) %11, ptr noundef @.str.2, ptr noundef nonnull align 1 dereferenceable(1) %12)
          to label %15 unwind label %17

15:                                               ; preds = %5
  invoke void @_ZN2cv5errorEiRKNSt7__cxx1112basic_stringIcSt11char_traitsIcESaIcEEEPKcS9_i(i32 noundef -213, ptr noundef nonnull align 8 dereferenceable(32) %11, ptr noundef @__func__._ZNK2cv3dnn14dnn4_v202405215Layer20applyHalideSchedulerERNS_3PtrINS1_11BackendNodeEEERKSt6vectorIPNS_3MatESaIS9_EERKS7_IS8_SaIS8_EEi, ptr noundef @.str.1, i32 noundef 358) #13
          to label %16 unwind label %21

16:                                               ; preds = %15
  unreachable

17:                                               ; preds = %5
  %18 = landingpad { ptr, i32 }
          cleanup
  %19 = extractvalue { ptr, i32 } %18, 0
  store ptr %19, ptr %13, align 8
  %20 = extractvalue { ptr, i32 } %18, 1
  store i32 %20, ptr %14, align 4
  br label %25

21:                                               ; preds = %15
  %22 = landingpad { ptr, i32 }
          cleanup
  %23 = extractvalue { ptr, i32 } %22, 0
  store ptr %23, ptr %13, align 8
  %24 = extractvalue { ptr, i32 } %22, 1
  store i32 %24, ptr %14, align 4
  call void @_ZNSt7__cxx1112basic_stringIcSt11char_traitsIcESaIcEED1Ev(ptr noundef nonnull align 8 dereferenceable(32) %11) #3
  br label %25

25:                                               ; preds = %21, %17
  call void @_ZNSaIcED1Ev(ptr noundef nonnull align 1 dereferenceable(1) %12) #3
  br label %26

26:                                               ; preds = %25
  %27 = load ptr, ptr %13, align 8
  %28 = load i32, ptr %14, align 4
  %29 = insertvalue { ptr, i32 } poison, ptr %27, 0
  %30 = insertvalue { ptr, i32 } %29, i32 %28, 1
  resume { ptr, i32 } %30
}