; Function Attrs: mustprogress noreturn uwtable
define void @_ZNK2cv3dnn14dnn4_v202405215Layer20applyHalideSchedulerERNS_3PtrINS1_11BackendNodeEEERKSt6vectorIPNS_3MatESaIS9_EERKS7_IS8_SaIS8_EEi(ptr nocapture noundef nonnull readnone align 8 dereferenceable(100) %0, ptr nocapture noundef nonnull readnone align 1 %1, ptr nocapture noundef nonnull readnone align 8 dereferenceable(24) %2, ptr nocapture noundef nonnull readnone align 8 dereferenceable(24) %3, i32 noundef %4) unnamed_addr #6 align 2 personality ptr @__gxx_personality_v0 {
  %6 = alloca %"class.std::__cxx11::basic_string", align 8
  %7 = alloca %"class.std::allocator", align 1
  call void @_ZNSaIcEC1Ev(ptr noundef nonnull align 1 dereferenceable(1) %7) #16
  invoke void @_ZNSt7__cxx1112basic_stringIcSt11char_traitsIcESaIcEEC1EPKcRKS3_(ptr noundef nonnull align 8 dereferenceable(32) %6, ptr noundef nonnull @.str.2, ptr noundef nonnull align 1 dereferenceable(1) %7)
          to label %8 unwind label %10

8:                                                ; preds = %5
  invoke void @_ZN2cv5errorEiRKNSt7__cxx1112basic_stringIcSt11char_traitsIcESaIcEEEPKcS9_i(i32 noundef -213, ptr noundef nonnull align 8 dereferenceable(32) %6, ptr noundef nonnull @__func__._ZNK2cv3dnn14dnn4_v202405215Layer20applyHalideSchedulerERNS_3PtrINS1_11BackendNodeEEERKSt6vectorIPNS_3MatESaIS9_EERKS7_IS8_SaIS8_EEi, ptr noundef nonnull @.str.1, i32 noundef 358) #13
          to label %9 unwind label %12

9:                                                ; preds = %8
  unreachable

10:                                               ; preds = %5
  %11 = landingpad { ptr, i32 }
          cleanup
  br label %14

12:                                               ; preds = %8
  %13 = landingpad { ptr, i32 }
          cleanup
  call void @_ZNSt7__cxx1112basic_stringIcSt11char_traitsIcESaIcEED1Ev(ptr noundef nonnull align 8 dereferenceable(32) %6) #16
  br label %14

14:                                               ; preds = %12, %10
  %.pn = phi { ptr, i32 } [ %13, %12 ], [ %11, %10 ]
  call void @_ZNSaIcED1Ev(ptr noundef nonnull align 1 dereferenceable(1) %7) #16
  resume { ptr, i32 } %.pn
}